; Function Attrs: mustprogress uwtable
define hidden void @_ZN13Z3_solver_ref10set_cancelEv(ptr noundef nonnull align 8 dereferenceable(128) %0) local_unnamed_addr #3 align 2 personality ptr @__gxx_personality_v0 {
  %2 = getelementptr inbounds nuw i8, ptr %0, i64 80
  %3 = tail call noundef i32 @pthread_mutex_lock(ptr noundef nonnull align 8 dereferenceable(40) %2) #25
  %.not.i.i = icmp eq i32 %3, 0
  br i1 %.not.i.i, label %_ZNSt10lock_guardISt5mutexEC2ERS0_.exit, label %4

4:                                                ; preds = %1
  tail call void @_ZSt20__throw_system_errori(i32 noundef %3) #26
  unreachable

_ZNSt10lock_guardISt5mutexEC2ERS0_.exit:          ; preds = %1
  %5 = getelementptr inbounds nuw i8, ptr %0, i64 120
  %6 = load ptr, ptr %5, align 8, !tbaa !61
  %.not = icmp eq ptr %6, null
  br i1 %.not, label %14, label %7

7:                                                ; preds = %_ZNSt10lock_guardISt5mutexEC2ERS0_.exit
  %8 = load ptr, ptr %6, align 8, !tbaa !27
  %9 = getelementptr inbounds nuw i8, ptr %8, i64 16
  %10 = load ptr, ptr %9, align 8
  invoke void %10(ptr noundef nonnull align 8 dereferenceable(12) %6, i32 noundef 4)
          to label %14 unwind label %11

11:                                               ; preds = %7
  %12 = landingpad { ptr, i32 }
          cleanup
  %13 = tail call noundef i32 @pthread_mutex_unlock(ptr noundef nonnull align 8 dereferenceable(40) %2) #25
  resume { ptr, i32 } %12

14:                                               ; preds = %7, %_ZNSt10lock_guardISt5mutexEC2ERS0_.exit
  %15 = tail call noundef i32 @pthread_mutex_unlock(ptr noundef nonnull align 8 dereferenceable(40) %2) #25
  ret void
}